; Function Attrs: mustprogress nofree norecurse nosync nounwind willreturn memory(argmem: write) uwtable
define void @_ZN6icu_7516LocaleKeyFactoryC2Ei(ptr nocapture noundef nonnull writeonly align 8 dereferenceable(76) %this, i32 noundef %coverage) unnamed_addr #6 align 2 personality ptr @__gxx_personality_v0 {
invoke.cont:
  store ptr getelementptr inbounds ({ [11 x ptr] }, ptr @_ZTVN6icu_7516LocaleKeyFactoryE, i64 0, i32 0, i64 2), ptr %this, align 8
  %_name = getelementptr inbounds i8, ptr %this, i64 8
  store ptr getelementptr inbounds ({ [13 x ptr] }, ptr @_ZTVN6icu_7513UnicodeStringE, i64 0, i32 0, i64 2), ptr %_name, align 8
  %fUnion2.i = getelementptr inbounds i8, ptr %this, i64 16
  store i16 2, ptr %fUnion2.i, align 8
  %_coverage = getelementptr inbounds i8, ptr %this, i64 72
  store i32 %coverage, ptr %_coverage, align 8
  ret void
}